target datalayout = "e-m:e-p270:32:32-p271:32:32-p272:64:64-i64:64-i128:128-f80:128-n8:16:32:64-S128"
target triple = "x86_64-pc-linux-gnu"

%struct.wtap_dumper = type { ptr, i32, i32, i32, i32, i32, i64, ptr, ptr, ptr, ptr, ptr, ptr, ptr, ptr, ptr, ptr, ptr, ptr, ptr, i32, i32, i32 }

; Function Attrs: nounwind uwtable
define internal i32 @pcapng_add_idb(ptr noundef %0, ptr noundef %1, ptr noundef %2, ptr noundef %3) #0 {
  %5 = alloca ptr, align 8
  %6 = alloca ptr, align 8
  %7 = alloca ptr, align 8
  %8 = alloca ptr, align 8
  %9 = alloca ptr, align 8
  store ptr %0, ptr %5, align 8
  store ptr %1, ptr %6, align 8
  store ptr %2, ptr %7, align 8
  store ptr %3, ptr %8, align 8
  %10 = call ptr @wtap_block_create(i32 noundef 1)
  store ptr %10, ptr %9, align 8
  %11 = load ptr, ptr %9, align 8
  %12 = load ptr, ptr %6, align 8
  call void @wtap_block_copy(ptr noundef %11, ptr noundef %12)
  %13 = load ptr, ptr %5, align 8
  %14 = getelementptr inbounds %struct.wtap_dumper, ptr %13, i32 0, i32 15
  %15 = load ptr, ptr %14, align 8
  %16 = call ptr @g_array_append_vals(ptr noundef %15, ptr noundef %9, i32 noundef 1)
  %17 = load ptr, ptr %5, align 8
  %18 = load ptr, ptr %9, align 8
  %19 = load ptr, ptr %7, align 8
  %20 = call i32 @pcapng_write_if_descr_block(ptr noundef %17, ptr noundef %18, ptr noundef %19)
  ret i32 %20
}