; Function Attrs: nounwind uwtable
define internal range(i32 0, 2) i32 @pcapng_add_idb(ptr noundef %0, ptr noundef %1, ptr noundef %2, ptr readnone captures(none) %3) #0 {
  %5 = alloca ptr, align 8
  %6 = tail call ptr @wtap_block_create(i32 noundef 1) #16
  store ptr %6, ptr %5, align 8
  tail call void @wtap_block_copy(ptr noundef %6, ptr noundef %1) #16
  %7 = getelementptr inbounds nuw i8, ptr %0, i64 104
  %8 = load ptr, ptr %7, align 8
  %9 = call ptr @g_array_append_vals(ptr noundef %8, ptr noundef nonnull %5, i32 noundef 1) #16
  %10 = load ptr, ptr %5, align 8
  %11 = call fastcc i32 @pcapng_write_if_descr_block(ptr noundef %0, ptr noundef %10, ptr noundef %2)
  ret i32 %11
}